GAS LISTING C:\Users\Jesper\AppData\Local\Temp\cc6PFtDs.s 			page 1


   1              		.file	"main.c"
   2              		.option nopic
   3              		.attribute arch, "rv32i2p0_m2p0_a2p0_c2p0"
   4              		.attribute unaligned_access, 0
   5              		.attribute stack_align, 16
   6              		.text
   7              	.Ltext0:
   8              		.cfi_sections	.debug_frame
   9              		.section	.text.startup.main,"ax",@progbits
  10              		.align	1
  11              		.globl	main
  13              	main:
  14              	.LFB2:
  15              		.file 1 "main.c"
   1:main.c        **** #include "gd32vf103.h"
   2:main.c        **** #include "drivers.h"
   3:main.c        **** #include "eclicw.h"
   4:main.c        **** #include "lcd.h"
   5:main.c        **** #include "delay.h"
   6:main.c        **** #include "adc.h"
   7:main.c        **** #include "fft.h"
   8:main.c        **** #include "cordic-math.h"
   9:main.c        **** #define EI 1
  10:main.c        **** #define DI 0
  11:main.c        **** #define SCREENHEIGHT 80
  12:main.c        **** #define WAVEPOINTS 512
  13:main.c        **** 
  14:main.c        **** Complex wave[WAVEPOINTS]={0};
  15:main.c        **** 
  16:main.c        **** int main(void)
  17:main.c        **** { 
  16              		.loc 1 17 1
  17              		.cfi_startproc
  18:main.c        ****   for (int i = 0; i < WAVEPOINTS; i++)
  18              		.loc 1 18 3
  19              	.LBB2:
  20              		.loc 1 18 8
  21              	.LVL0:
  22              	.LBE2:
  17:main.c        ****   for (int i = 0; i < WAVEPOINTS; i++)
  23              		.loc 1 17 1 is_stmt 0
  24 0000 7971     		addi	sp,sp,-48
  25              	.LCFI0:
  26              		.cfi_def_cfa_offset 48
  27 0002 62C4     		sw	s8,8(sp)
  28              		.cfi_offset 24, -40
  29 0004 370C0000 		lui	s8,%hi(wave)
  30 0008 66C2     		sw	s9,4(sp)
  31 000a 0567     		li	a4,4096
  32              		.cfi_offset 25, -44
  33 000c 930C0C00 		addi	s9,s8,%lo(wave)
  34 0010 5EC6     		sw	s7,12(sp)
  35 0012 06D6     		sw	ra,44(sp)
  36 0014 22D4     		sw	s0,40(sp)
  37 0016 26D2     		sw	s1,36(sp)
  38 0018 4AD0     		sw	s2,32(sp)
  39 001a 4ECE     		sw	s3,28(sp)
GAS LISTING C:\Users\Jesper\AppData\Local\Temp\cc6PFtDs.s 			page 2


  40 001c 52CC     		sw	s4,24(sp)
  41 001e 56CA     		sw	s5,20(sp)
  42 0020 5AC8     		sw	s6,16(sp)
  43              		.cfi_offset 23, -36
  44              		.cfi_offset 1, -4
  45              		.cfi_offset 8, -8
  46              		.cfi_offset 9, -12
  47              		.cfi_offset 18, -16
  48              		.cfi_offset 19, -20
  49              		.cfi_offset 20, -24
  50              		.cfi_offset 21, -28
  51              		.cfi_offset 22, -32
  52 0022 6697     		add	a4,s9,a4
  17:main.c        ****   for (int i = 0; i < WAVEPOINTS; i++)
  53              		.loc 1 17 1
  54 0024 930B0C00 		addi	s7,s8,%lo(wave)
  55 0028 93070C00 		addi	a5,s8,%lo(wave)
  56              	.LVL1:
  57              	.L2:
  58              	.LBB3:
  19:main.c        ****   {
  20:main.c        ****     wave[i].real = 0;
  59              		.loc 1 20 5 is_stmt 1 discriminator 3
  60              		.loc 1 20 18 is_stmt 0 discriminator 3
  61 002c 23A00700 		sw	zero,0(a5)
  21:main.c        ****     wave[i].imag = 0;
  62              		.loc 1 21 5 is_stmt 1 discriminator 3
  63              		.loc 1 21 18 is_stmt 0 discriminator 3
  64 0030 23A20700 		sw	zero,4(a5)
  65 0034 A107     		addi	a5,a5,8
  18:main.c        ****   {
  66              		.loc 1 18 3 discriminator 3
  67 0036 E39BE7FE 		bne	a5,a4,.L2
  68              	.LBE3:
  22:main.c        ****   }
  23:main.c        ****   
  24:main.c        ****   int adcr;
  69              		.loc 1 24 3 is_stmt 1
  25:main.c        ****   int value;
  70              		.loc 1 25 3
  26:main.c        ****   int amount = 0;
  71              		.loc 1 26 3
  72              	.LVL2:
  27:main.c        ****   int length;
  73              		.loc 1 27 3
  28:main.c        ****   ADC3powerUpInit(0); // Initialize ADC0, Ch3 & Ch16
  74              		.loc 1 28 3
  75 003a 0145     		li	a0,0
  76 003c 97000000 		call	ADC3powerUpInit
  76      E7800000 
  77              	.LVL3:
  29:main.c        ****   Lcd_SetType(LCD_INVERTED);
  78              		.loc 1 29 3
  79 0044 0545     		li	a0,1
  80 0046 97000000 		call	Lcd_SetType
  80      E7800000 
  81              	.LVL4:
GAS LISTING C:\Users\Jesper\AppData\Local\Temp\cc6PFtDs.s 			page 3


  30:main.c        ****   Lcd_Init();
  82              		.loc 1 30 3
  83 004e 97000000 		call	Lcd_Init
  83      E7800000 
  84              	.LVL5:
  31:main.c        ****   LCD_Clear(BLACK);
  85              		.loc 1 31 3
  86 0056 0145     		li	a0,0
  32:main.c        **** 
  33:main.c        ****   while (1)
  34:main.c        ****   {
  35:main.c        ****     //uint64_t time = get_timer_value();
  36:main.c        ****     if (adc_flag_get(ADC0, ADC_FLAG_EOC) == SET)
  87              		.loc 1 36 9 is_stmt 0
  88 0058 372A0140 		li	s4,1073815552
  89              	.LBB4:
  37:main.c        ****     { // ...ADC done?
  38:main.c        ****       value = adc_regular_data_read(ADC0);
  39:main.c        ****       wave[amount].real = ((value-2047)>>4);
  40:main.c        ****       wave[amount++].imag = 0;
  41:main.c        ****       adc_flag_clear(ADC0, ADC_FLAG_EOC); // ......clear IF
  42:main.c        ****       //delay_1us(10);
  43:main.c        ****       adc_software_trigger_enable(ADC0, // Trigger another ADC conversion!
  44:main.c        ****                                 ADC_REGULAR_CHANNEL);
  45:main.c        ****     }
  46:main.c        ****     if(amount==WAVEPOINTS){
  47:main.c        ****       delay_1ms(100);
  48:main.c        ****       LCD_Clear(BLACK);
  49:main.c        ****       LCD_Wait_On_Queue();
  50:main.c        ****       fft(wave,WAVEPOINTS);
  51:main.c        ****       draw_graph();
  52:main.c        ****       for (int i = 0; i < 160; i++)
  53:main.c        ****       {
  54:main.c        ****         LCD_DrawLine(i,40,i,(-cordic_hypotenuse(wave[i].imag, wave[i].real)>>CORDIC_MATH_FRACTION_B
  90              		.loc 1 54 9
  91 005c 4169     		li	s2,65536
  92              	.LBE4:
  31:main.c        **** 
  93              		.loc 1 31 3
  94 005e 97000000 		call	LCD_Clear
  94      E7800000 
  95              	.LVL6:
  36:main.c        ****     { // ...ADC done?
  96              		.loc 1 36 9
  97 0066 130A0A40 		addi	s4,s4,1024
  36:main.c        ****     { // ...ADC done?
  98              		.loc 1 36 8
  99 006a 054B     		li	s6,1
  46:main.c        ****       delay_1ms(100);
 100              		.loc 1 46 7
 101 006c 930A0020 		li	s5,512
 102              	.LBB5:
 103              		.loc 1 54 9
 104 0070 13090980 		addi	s2,s2,-2048
  52:main.c        ****       {
 105              		.loc 1 52 7
 106 0074 9309000A 		li	s3,160
GAS LISTING C:\Users\Jesper\AppData\Local\Temp\cc6PFtDs.s 			page 4


 107              	.L6:
 108              	.LBE5:
  17:main.c        ****   for (int i = 0; i < WAVEPOINTS; i++)
 109              		.loc 1 17 1
 110 0078 0144     		li	s0,0
 111              	.LVL7:
 112              	.L4:
  33:main.c        ****   {
 113              		.loc 1 33 3 is_stmt 1
  36:main.c        ****     { // ...ADC done?
 114              		.loc 1 36 5
  36:main.c        ****     { // ...ADC done?
 115              		.loc 1 36 9 is_stmt 0
 116 007a 8945     		li	a1,2
 117 007c 5285     		mv	a0,s4
 118 007e 97000000 		call	adc_flag_get
 118      E7800000 
 119              	.LVL8:
  36:main.c        ****     { // ...ADC done?
 120              		.loc 1 36 8
 121 0086 630E6507 		beq	a0,s6,.L12
  46:main.c        ****       delay_1ms(100);
 122              		.loc 1 46 5 is_stmt 1
  46:main.c        ****       delay_1ms(100);
 123              		.loc 1 46 7 is_stmt 0
 124 008a E31854FF 		bne	s0,s5,.L4
 125              	.L13:
  47:main.c        ****       LCD_Clear(BLACK);
 126              		.loc 1 47 7 is_stmt 1
 127 008e 13054006 		li	a0,100
 128 0092 97000000 		call	delay_1ms
 128      E7800000 
 129              	.LVL9:
  48:main.c        ****       LCD_Wait_On_Queue();
 130              		.loc 1 48 7
 131 009a 0145     		li	a0,0
 132 009c 97000000 		call	LCD_Clear
 132      E7800000 
 133              	.LVL10:
  49:main.c        ****       fft(wave,WAVEPOINTS);
 134              		.loc 1 49 7
 135 00a4 97000000 		call	LCD_Wait_On_Queue
 135      E7800000 
 136              	.LVL11:
  50:main.c        ****       draw_graph();
 137              		.loc 1 50 7
 138 00ac 93050020 		li	a1,512
 139 00b0 13050C00 		addi	a0,s8,%lo(wave)
 140 00b4 97000000 		call	fft
 140      E7800000 
 141              	.LVL12:
  51:main.c        ****       for (int i = 0; i < 160; i++)
 142              		.loc 1 51 7
 143 00bc 97000000 		call	draw_graph
 143      E7800000 
 144              	.LVL13:
  52:main.c        ****       {
GAS LISTING C:\Users\Jesper\AppData\Local\Temp\cc6PFtDs.s 			page 5


 145              		.loc 1 52 7
 146              	.LBB6:
  52:main.c        ****       {
 147              		.loc 1 52 12
 148              	.LBE6:
  51:main.c        ****       for (int i = 0; i < 160; i++)
 149              		.loc 1 51 7 is_stmt 0
 150 00c4 E684     		mv	s1,s9
 151              	.LBB7:
  52:main.c        ****       {
 152              		.loc 1 52 16
 153 00c6 0144     		li	s0,0
 154              	.LVL14:
 155              	.L5:
 156              		.loc 1 54 9 is_stmt 1 discriminator 3
 157              		.loc 1 54 31 is_stmt 0 discriminator 3
 158 00c8 8C40     		lw	a1,0(s1)
 159 00ca C840     		lw	a0,4(s1)
 160 00cc A104     		addi	s1,s1,8
 161 00ce 97000000 		call	cordic_hypotenuse
 161      E7800000 
 162              	.LVL15:
 163              		.loc 1 54 30 discriminator 3
 164 00d6 B306A040 		neg	a3,a0
 165              		.loc 1 54 76 discriminator 3
 166 00da A186     		srai	a3,a3,8
 167              		.loc 1 54 9 discriminator 3
 168 00dc 2286     		mv	a2,s0
 169 00de 2285     		mv	a0,s0
 170 00e0 4A87     		mv	a4,s2
  52:main.c        ****       {
 171              		.loc 1 52 33 discriminator 3
 172 00e2 0504     		addi	s0,s0,1
 173              	.LVL16:
 174              		.loc 1 54 9 discriminator 3
 175 00e4 93868602 		addi	a3,a3,40
 176 00e8 93058002 		li	a1,40
 177 00ec 97000000 		call	LCD_DrawLine
 177      E7800000 
 178              	.LVL17:
  52:main.c        ****       {
 179              		.loc 1 52 7 discriminator 3
 180 00f4 E31A34FD 		bne	s0,s3,.L5
 181              	.LBE7:
  55:main.c        ****       }
  56:main.c        ****       
  57:main.c        ****       LCD_Wait_On_Queue();
 182              		.loc 1 57 7 is_stmt 1
 183 00f8 97000000 		call	LCD_Wait_On_Queue
 183      E7800000 
 184              	.LVL18:
  58:main.c        ****       amount=0;
 185              		.loc 1 58 7
 186 0100 A5BF     		j	.L6
 187              	.LVL19:
 188              	.L12:
  38:main.c        ****       wave[amount].real = ((value-2047)>>4);
GAS LISTING C:\Users\Jesper\AppData\Local\Temp\cc6PFtDs.s 			page 6


 189              		.loc 1 38 7
  38:main.c        ****       wave[amount].real = ((value-2047)>>4);
 190              		.loc 1 38 15 is_stmt 0
 191 0102 5285     		mv	a0,s4
 192 0104 97000000 		call	adc_regular_data_read
 192      E7800000 
 193              	.LVL20:
  39:main.c        ****       wave[amount++].imag = 0;
 194              		.loc 1 39 7 is_stmt 1
  39:main.c        ****       wave[amount++].imag = 0;
 195              		.loc 1 39 34 is_stmt 0
 196 010c 13051580 		addi	a0,a0,-2047
 197              	.LVL21:
  39:main.c        ****       wave[amount++].imag = 0;
 198              		.loc 1 39 25
 199 0110 93173400 		slli	a5,s0,3
 200 0114 DE97     		add	a5,s7,a5
  39:main.c        ****       wave[amount++].imag = 0;
 201              		.loc 1 39 40
 202 0116 13574540 		srai	a4,a0,4
  41:main.c        ****       //delay_1us(10);
 203              		.loc 1 41 7
 204 011a 8945     		li	a1,2
 205 011c 5285     		mv	a0,s4
  39:main.c        ****       wave[amount++].imag = 0;
 206              		.loc 1 39 25
 207 011e 98C3     		sw	a4,0(a5)
  40:main.c        ****       adc_flag_clear(ADC0, ADC_FLAG_EOC); // ......clear IF
 208              		.loc 1 40 7 is_stmt 1
  40:main.c        ****       adc_flag_clear(ADC0, ADC_FLAG_EOC); // ......clear IF
 209              		.loc 1 40 27 is_stmt 0
 210 0120 23A20700 		sw	zero,4(a5)
  41:main.c        ****       //delay_1us(10);
 211              		.loc 1 41 7
 212 0124 97000000 		call	adc_flag_clear
 212      E7800000 
 213              	.LVL22:
  40:main.c        ****       adc_flag_clear(ADC0, ADC_FLAG_EOC); // ......clear IF
 214              		.loc 1 40 18
 215 012c 0504     		addi	s0,s0,1
 216              	.LVL23:
  41:main.c        ****       //delay_1us(10);
 217              		.loc 1 41 7 is_stmt 1
  43:main.c        ****                                 ADC_REGULAR_CHANNEL);
 218              		.loc 1 43 7
 219 012e 8545     		li	a1,1
 220 0130 5285     		mv	a0,s4
 221 0132 97000000 		call	adc_software_trigger_enable
 221      E7800000 
 222              	.LVL24:
  46:main.c        ****       delay_1ms(100);
 223              		.loc 1 46 5
  46:main.c        ****       delay_1ms(100);
 224              		.loc 1 46 7 is_stmt 0
 225 013a E31054F5 		bne	s0,s5,.L4
 226 013e 81BF     		j	.L13
 227              		.cfi_endproc
GAS LISTING C:\Users\Jesper\AppData\Local\Temp\cc6PFtDs.s 			page 7


 228              	.LFE2:
 230              		.globl	wave
 231              		.section	.bss.wave,"aw",@nobits
 232              		.align	2
 235              	wave:
 236 0000 00000000 		.zero	4096
 236      00000000 
 236      00000000 
 236      00000000 
 236      00000000 
 237              		.text
 238              	.Letext0:
 239              		.file 2 "c:\\toolchain-gd32v-win-001\\toolchain-gd32v-win\\compiler\\riscv64-unknown-elf\\include\
 240              		.file 3 "c:\\toolchain-gd32v-win-001\\toolchain-gd32v-win\\compiler\\riscv64-unknown-elf\\include\
 241              		.file 4 "c:\\toolchain-gd32v-win-001\\toolchain-gd32v-win\\compiler\\lib\\gcc\\riscv64-unknown-elf
 242              		.file 5 "c:\\toolchain-gd32v-win-001\\toolchain-gd32v-win\\compiler\\riscv64-unknown-elf\\include\
 243              		.file 6 "c:\\toolchain-gd32v-win-001\\toolchain-gd32v-win\\compiler\\riscv64-unknown-elf\\include\
 244              		.file 7 "c:\\toolchain-gd32v-win-001\\toolchain-gd32v-win\\compiler\\riscv64-unknown-elf\\include\
 245              		.file 8 "../../firmware/GD32VF103_standard_peripheral/system_gd32vf103.h"
 246              		.file 9 "c:\\toolchain-gd32v-win-001\\toolchain-gd32v-win\\compiler\\riscv64-unknown-elf\\include\
 247              		.file 10 "lcd.h"
 248              		.file 11 "fft.h"
 249              		.file 12 "cordic-math.h"
 250              		.file 13 "adc.h"
 251              		.file 14 "../../firmware/GD32VF103_standard_peripheral/Include/gd32vf103_adc.h"
 252              		.file 15 "delay.h"
 253              		.file 16 "../../firmware/GD32VF103_standard_peripheral/gd32vf103.h"
GAS LISTING C:\Users\Jesper\AppData\Local\Temp\cc6PFtDs.s 			page 8

