GAS LISTING C:\Users\Jesper\AppData\Local\Temp\cc7Kl7lD.s 			page 1


   1              		.file	"main.c"
   2              		.option nopic
   3              		.attribute arch, "rv32i2p0_m2p0_a2p0_c2p0"
   4              		.attribute unaligned_access, 0
   5              		.attribute stack_align, 16
   6              		.text
   7              	.Ltext0:
   8              		.cfi_sections	.debug_frame
   9              		.section	.text.startup.main,"ax",@progbits
  10              		.align	1
  11              		.globl	main
  13              	main:
  14              	.LFB2:
  15              		.file 1 "main.c"
   1:main.c        **** #include "gd32vf103.h"
   2:main.c        **** #include "drivers.h"
   3:main.c        **** #include "eclicw.h"
   4:main.c        **** #include "lcd.h"
   5:main.c        **** #include "delay.h"
   6:main.c        **** #include "adc.h"
   7:main.c        **** #include "fft.h"
   8:main.c        **** #include "cordic-math.h"
   9:main.c        **** #define EI 1
  10:main.c        **** #define DI 0
  11:main.c        **** #define SCREENHEIGHT 80
  12:main.c        **** #define WAVEPOINTS 128
  13:main.c        **** 
  14:main.c        **** Complex wave[WAVEPOINTS]={0};
  15:main.c        **** 
  16:main.c        **** int main(void)
  17:main.c        **** { 
  16              		.loc 1 17 1
  17              		.cfi_startproc
  18:main.c        ****   for (int i = 0; i < WAVEPOINTS; i++)
  18              		.loc 1 18 3
  19              	.LBB2:
  20              		.loc 1 18 8
  21              	.LVL0:
  22              	.LBE2:
  17:main.c        ****   for (int i = 0; i < WAVEPOINTS; i++)
  23              		.loc 1 17 1 is_stmt 0
  24 0000 5D71     		addi	sp,sp,-80
  25              	.LCFI0:
  26              		.cfi_def_cfa_offset 80
  27 0002 5AD8     		sw	s6,48(sp)
  28              		.cfi_offset 22, -32
  29 0004 370B0000 		lui	s6,%hi(.LANCHOR0)
  30 0008 5ED6     		sw	s7,44(sp)
  31              		.cfi_offset 23, -36
  32 000a 930B0B00 		addi	s7,s6,%lo(.LANCHOR0)
  33 000e 66D2     		sw	s9,36(sp)
  34 0010 86C6     		sw	ra,76(sp)
  35 0012 A2C4     		sw	s0,72(sp)
  36 0014 A6C2     		sw	s1,68(sp)
  37 0016 CAC0     		sw	s2,64(sp)
  38 0018 4EDE     		sw	s3,60(sp)
  39 001a 52DC     		sw	s4,56(sp)
GAS LISTING C:\Users\Jesper\AppData\Local\Temp\cc7Kl7lD.s 			page 2


  40 001c 56DA     		sw	s5,52(sp)
  41 001e 62D4     		sw	s8,40(sp)
  42 0020 6AD0     		sw	s10,32(sp)
  43 0022 6ECE     		sw	s11,28(sp)
  44              		.cfi_offset 25, -44
  45              		.cfi_offset 1, -4
  46              		.cfi_offset 8, -8
  47              		.cfi_offset 9, -12
  48              		.cfi_offset 18, -16
  49              		.cfi_offset 19, -20
  50              		.cfi_offset 20, -24
  51              		.cfi_offset 21, -28
  52              		.cfi_offset 24, -40
  53              		.cfi_offset 26, -48
  54              		.cfi_offset 27, -52
  55 0024 13870B40 		addi	a4,s7,1024
  17:main.c        ****   for (int i = 0; i < WAVEPOINTS; i++)
  56              		.loc 1 17 1
  57 0028 930C0B00 		addi	s9,s6,%lo(.LANCHOR0)
  58 002c 93070B00 		addi	a5,s6,%lo(.LANCHOR0)
  59              	.LVL1:
  60              	.L2:
  61              	.LBB3:
  19:main.c        ****   {
  20:main.c        ****     wave[i].real = 0;
  62              		.loc 1 20 5 is_stmt 1 discriminator 3
  63              		.loc 1 20 18 is_stmt 0 discriminator 3
  64 0030 23A00700 		sw	zero,0(a5)
  21:main.c        ****     wave[i].imag = 0;
  65              		.loc 1 21 5 is_stmt 1 discriminator 3
  66              		.loc 1 21 18 is_stmt 0 discriminator 3
  67 0034 23A20700 		sw	zero,4(a5)
  68 0038 A107     		addi	a5,a5,8
  18:main.c        ****   {
  69              		.loc 1 18 3 discriminator 3
  70 003a E39BE7FE 		bne	a5,a4,.L2
  71              	.LBE3:
  22:main.c        ****   }
  23:main.c        ****   
  24:main.c        ****   int adcr;
  72              		.loc 1 24 3 is_stmt 1
  25:main.c        ****   int value;
  73              		.loc 1 25 3
  26:main.c        ****   int amount = 0;
  74              		.loc 1 26 3
  75              	.LVL2:
  27:main.c        ****   int length;
  76              		.loc 1 27 3
  28:main.c        ****   ADC3powerUpInit(0); // Initialize ADC0, Ch3 & Ch16
  77              		.loc 1 28 3
  78 003e 0145     		li	a0,0
  79 0040 97000000 		call	ADC3powerUpInit
  79      E7800000 
  80              	.LVL3:
  29:main.c        ****   Lcd_SetType(LCD_INVERTED);
  81              		.loc 1 29 3
  82 0048 0545     		li	a0,1
GAS LISTING C:\Users\Jesper\AppData\Local\Temp\cc7Kl7lD.s 			page 3


  83 004a 97000000 		call	Lcd_SetType
  83      E7800000 
  84              	.LVL4:
  30:main.c        ****   Lcd_Init();
  85              		.loc 1 30 3
  86 0052 97000000 		call	Lcd_Init
  86      E7800000 
  87              	.LVL5:
  31:main.c        ****   LCD_Clear(BLACK);
  88              		.loc 1 31 3
  89 005a 0145     		li	a0,0
  90 005c 97000000 		call	LCD_Clear
  90      E7800000 
  91              	.LVL6:
  92 0064 370D0000 		lui	s10,%hi(.LANCHOR0+360)
  93 0068 93078D16 		addi	a5,s10,%lo(.LANCHOR0+360)
  94 006c 370A0000 		lui	s4,%hi(.LANCHOR0+440)
  32:main.c        **** 
  33:main.c        ****   while (1)
  34:main.c        ****   {
  35:main.c        ****     //uint64_t time = get_timer_value();
  36:main.c        ****     if (adc_flag_get(ADC0, ADC_FLAG_EOC) == SET)
  95              		.loc 1 36 9 is_stmt 0
  96 0070 B7290140 		li	s3,1073815552
  37:main.c        ****     { // ...ADC done?
  38:main.c        ****       value = adc_regular_data_read(ADC0);
  39:main.c        ****       wave[amount].real = ((value-2047)>>4);
  40:main.c        ****       wave[amount++].imag = 0;
  41:main.c        ****       adc_flag_clear(ADC0, ADC_FLAG_EOC); // ......clear IF
  42:main.c        ****       delay_1us(7812);   //ändra för skala, 7812 = 1Hz
  97              		.loc 1 42 7
  98 0074 096C     		li	s8,8192
  99              	.LBB4:
  43:main.c        ****       adc_software_trigger_enable(ADC0, // Trigger another ADC conversion!
  44:main.c        ****                                 ADC_REGULAR_CHANNEL);
  45:main.c        ****     }
  46:main.c        ****     if(amount==WAVEPOINTS){
  47:main.c        ****       delay_1ms(100);
  48:main.c        ****       LCD_Clear(BLACK);
  49:main.c        ****       LCD_Wait_On_Queue();
  50:main.c        ****       fft(wave,WAVEPOINTS);
  51:main.c        ****       draw_graph();
  52:main.c        ****       for (int i = 0; i < 128; i++)
  53:main.c        ****       {
  54:main.c        ****         LCD_DrawLine(i,40,i,(-cordic_hypotenuse(wave[i].imag, wave[i].real)>>CORDIC_MATH_FRACTION_B
 100              		.loc 1 54 9
 101 0076 4169     		li	s2,65536
 102 0078 3EC6     		sw	a5,12(sp)
 103 007a 130A8A1B 		addi	s4,s4,%lo(.LANCHOR0+440)
 104              	.LBE4:
  36:main.c        ****     { // ...ADC done?
 105              		.loc 1 36 9
 106 007e 93890940 		addi	s3,s3,1024
  36:main.c        ****     { // ...ADC done?
 107              		.loc 1 36 8
 108 0082 854A     		li	s5,1
  42:main.c        ****       adc_software_trigger_enable(ADC0, // Trigger another ADC conversion!
GAS LISTING C:\Users\Jesper\AppData\Local\Temp\cc7Kl7lD.s 			page 4


 109              		.loc 1 42 7
 110 0084 130C4CE8 		addi	s8,s8,-380
  46:main.c        ****       delay_1ms(100);
 111              		.loc 1 46 7
 112 0088 93040008 		li	s1,128
 113              	.LBB5:
 114              		.loc 1 54 9
 115 008c 13090980 		addi	s2,s2,-2048
 116              	.L8:
 117              	.LBE5:
  17:main.c        ****   for (int i = 0; i < WAVEPOINTS; i++)
 118              		.loc 1 17 1
 119 0090 0144     		li	s0,0
 120              	.LVL7:
 121              	.L4:
  33:main.c        ****   {
 122              		.loc 1 33 3 is_stmt 1
  36:main.c        ****     { // ...ADC done?
 123              		.loc 1 36 5
  36:main.c        ****     { // ...ADC done?
 124              		.loc 1 36 9 is_stmt 0
 125 0092 8945     		li	a1,2
 126 0094 4E85     		mv	a0,s3
 127 0096 97000000 		call	adc_flag_get
 127      E7800000 
 128              	.LVL8:
  36:main.c        ****     { // ...ADC done?
 129              		.loc 1 36 8
 130 009e 6303550D 		beq	a0,s5,.L16
  46:main.c        ****       delay_1ms(100);
 131              		.loc 1 46 5 is_stmt 1
  46:main.c        ****       delay_1ms(100);
 132              		.loc 1 46 7 is_stmt 0
 133 00a2 E31894FE 		bne	s0,s1,.L4
 134              	.L17:
  47:main.c        ****       LCD_Clear(BLACK);
 135              		.loc 1 47 7 is_stmt 1
 136 00a6 13054006 		li	a0,100
 137 00aa 97000000 		call	delay_1ms
 137      E7800000 
 138              	.LVL9:
  48:main.c        ****       LCD_Wait_On_Queue();
 139              		.loc 1 48 7
 140 00b2 0145     		li	a0,0
 141 00b4 97000000 		call	LCD_Clear
 141      E7800000 
 142              	.LVL10:
  49:main.c        ****       fft(wave,WAVEPOINTS);
 143              		.loc 1 49 7
 144 00bc 97000000 		call	LCD_Wait_On_Queue
 144      E7800000 
 145              	.LVL11:
  50:main.c        ****       draw_graph();
 146              		.loc 1 50 7
 147 00c4 93050008 		li	a1,128
 148 00c8 13050B00 		addi	a0,s6,%lo(.LANCHOR0)
 149 00cc 97000000 		call	fft
GAS LISTING C:\Users\Jesper\AppData\Local\Temp\cc7Kl7lD.s 			page 5


 149      E7800000 
 150              	.LVL12:
  51:main.c        ****       for (int i = 0; i < 128; i++)
 151              		.loc 1 51 7
 152 00d4 97000000 		call	draw_graph
 152      E7800000 
 153              	.LVL13:
  52:main.c        ****       {
 154              		.loc 1 52 7
 155              	.LBB6:
  52:main.c        ****       {
 156              		.loc 1 52 12
 157              	.LBE6:
  51:main.c        ****       for (int i = 0; i < 128; i++)
 158              		.loc 1 51 7 is_stmt 0
 159 00dc DE8D     		mv	s11,s7
 160              	.LBB7:
  52:main.c        ****       {
 161              		.loc 1 52 16
 162 00de 0144     		li	s0,0
 163              	.LVL14:
 164              	.L5:
 165              		.loc 1 54 9 is_stmt 1 discriminator 3
 166              		.loc 1 54 31 is_stmt 0 discriminator 3
 167 00e0 83A50D00 		lw	a1,0(s11)
 168 00e4 03A54D00 		lw	a0,4(s11)
 169 00e8 A10D     		addi	s11,s11,8
 170 00ea 97000000 		call	cordic_hypotenuse
 170      E7800000 
 171              	.LVL15:
 172              		.loc 1 54 30 discriminator 3
 173 00f2 B306A040 		neg	a3,a0
 174              		.loc 1 54 76 discriminator 3
 175 00f6 A186     		srai	a3,a3,8
 176              		.loc 1 54 9 discriminator 3
 177 00f8 2286     		mv	a2,s0
 178 00fa 2285     		mv	a0,s0
 179 00fc 4A87     		mv	a4,s2
  52:main.c        ****       {
 180              		.loc 1 52 33 discriminator 3
 181 00fe 0504     		addi	s0,s0,1
 182              	.LVL16:
 183              		.loc 1 54 9 discriminator 3
 184 0100 93868602 		addi	a3,a3,40
 185 0104 93058002 		li	a1,40
 186 0108 97000000 		call	LCD_DrawLine
 186      E7800000 
 187              	.LVL17:
  52:main.c        ****       {
 188              		.loc 1 52 7 discriminator 3
 189 0110 E31894FC 		bne	s0,s1,.L5
 190              	.LBE7:
  55:main.c        ****       }
  56:main.c        ****       inverse_fft(wave,WAVEPOINTS);
 191              		.loc 1 56 7 is_stmt 1
 192 0114 93050008 		li	a1,128
 193 0118 13050B00 		addi	a0,s6,%lo(.LANCHOR0)
GAS LISTING C:\Users\Jesper\AppData\Local\Temp\cc7Kl7lD.s 			page 6


 194 011c 97000000 		call	inverse_fft
 194      E7800000 
 195              	.LVL18:
  57:main.c        ****       for(int i = 0; i < 10; i++){
 196              		.loc 1 57 7
 197              	.LBB8:
 198              		.loc 1 57 11
 199 0124 B247     		lw	a5,12(sp)
 200              	.LVL19:
 201              	.L6:
  58:main.c        ****         wave[i+45].real = 0;
 202              		.loc 1 58 9 discriminator 3
 203              		.loc 1 58 25 is_stmt 0 discriminator 3
 204 0126 23A00700 		sw	zero,0(a5)
  59:main.c        ****         wave[i+45].imag = 0;
 205              		.loc 1 59 9 is_stmt 1 discriminator 3
 206              		.loc 1 59 25 is_stmt 0 discriminator 3
 207 012a 23A20700 		sw	zero,4(a5)
 208 012e A107     		addi	a5,a5,8
  57:main.c        ****       for(int i = 0; i < 10; i++){
 209              		.loc 1 57 7 discriminator 3
 210 0130 E31BFAFE 		bne	s4,a5,.L6
 211 0134 5E8D     		mv	s10,s7
 212              	.LBE8:
 213              	.LBB9:
  60:main.c        ****       }
  61:main.c        ****       for (int i = 0; i < 128; i++)
 214              		.loc 1 61 16
 215 0136 0144     		li	s0,0
 216              	.LVL20:
  62:main.c        ****       {
  63:main.c        ****         LCD_DrawPoint(i,(wave[i].real/5)+40,BLUE);
 217              		.loc 1 63 38
 218 0138 954D     		li	s11,5
 219              	.L7:
 220              	.LVL21:
 221              		.loc 1 63 9 is_stmt 1 discriminator 3
 222              		.loc 1 63 38 is_stmt 0 discriminator 3
 223 013a 83250D00 		lw	a1,0(s10)
 224              		.loc 1 63 9 discriminator 3
 225 013e 2285     		mv	a0,s0
 226 0140 7D46     		li	a2,31
 227              		.loc 1 63 38 discriminator 3
 228 0142 B3C5B503 		div	a1,a1,s11
  61:main.c        ****       {
 229              		.loc 1 61 33 discriminator 3
 230 0146 0504     		addi	s0,s0,1
 231              	.LVL22:
 232 0148 210D     		addi	s10,s10,8
 233              		.loc 1 63 9 discriminator 3
 234 014a 93858502 		addi	a1,a1,40
 235 014e 97000000 		call	LCD_DrawPoint
 235      E7800000 
 236              	.LVL23:
  61:main.c        ****       {
 237              		.loc 1 61 7 discriminator 3
 238 0156 E31294FE 		bne	s0,s1,.L7
GAS LISTING C:\Users\Jesper\AppData\Local\Temp\cc7Kl7lD.s 			page 7


 239              	.LBE9:
  64:main.c        ****       }
  65:main.c        ****       
  66:main.c        ****       LCD_Wait_On_Queue();
 240              		.loc 1 66 7 is_stmt 1
 241 015a 97000000 		call	LCD_Wait_On_Queue
 241      E7800000 
 242              	.LVL24:
  67:main.c        ****       amount=0;
 243              		.loc 1 67 7
 244 0162 3DB7     		j	.L8
 245              	.LVL25:
 246              	.L16:
  38:main.c        ****       wave[amount].real = ((value-2047)>>4);
 247              		.loc 1 38 7
  38:main.c        ****       wave[amount].real = ((value-2047)>>4);
 248              		.loc 1 38 15 is_stmt 0
 249 0164 4E85     		mv	a0,s3
 250 0166 97000000 		call	adc_regular_data_read
 250      E7800000 
 251              	.LVL26:
  39:main.c        ****       wave[amount++].imag = 0;
 252              		.loc 1 39 7 is_stmt 1
  39:main.c        ****       wave[amount++].imag = 0;
 253              		.loc 1 39 34 is_stmt 0
 254 016e 13051580 		addi	a0,a0,-2047
 255              	.LVL27:
  39:main.c        ****       wave[amount++].imag = 0;
 256              		.loc 1 39 25
 257 0172 93173400 		slli	a5,s0,3
 258 0176 E697     		add	a5,s9,a5
  39:main.c        ****       wave[amount++].imag = 0;
 259              		.loc 1 39 40
 260 0178 13574540 		srai	a4,a0,4
  41:main.c        ****       delay_1us(7812);   //ändra för skala, 7812 = 1Hz
 261              		.loc 1 41 7
 262 017c 8945     		li	a1,2
 263 017e 4E85     		mv	a0,s3
  39:main.c        ****       wave[amount++].imag = 0;
 264              		.loc 1 39 25
 265 0180 98C3     		sw	a4,0(a5)
  40:main.c        ****       adc_flag_clear(ADC0, ADC_FLAG_EOC); // ......clear IF
 266              		.loc 1 40 7 is_stmt 1
  40:main.c        ****       adc_flag_clear(ADC0, ADC_FLAG_EOC); // ......clear IF
 267              		.loc 1 40 27 is_stmt 0
 268 0182 23A20700 		sw	zero,4(a5)
  41:main.c        ****       delay_1us(7812);   //ändra för skala, 7812 = 1Hz
 269              		.loc 1 41 7
 270 0186 97000000 		call	adc_flag_clear
 270      E7800000 
 271              	.LVL28:
  42:main.c        ****       adc_software_trigger_enable(ADC0, // Trigger another ADC conversion!
 272              		.loc 1 42 7
 273 018e 6285     		mv	a0,s8
 274 0190 97000000 		call	delay_1us
 274      E7800000 
 275              	.LVL29:
GAS LISTING C:\Users\Jesper\AppData\Local\Temp\cc7Kl7lD.s 			page 8


  40:main.c        ****       adc_flag_clear(ADC0, ADC_FLAG_EOC); // ......clear IF
 276              		.loc 1 40 18
 277 0198 0504     		addi	s0,s0,1
 278              	.LVL30:
  41:main.c        ****       delay_1us(7812);   //ändra för skala, 7812 = 1Hz
 279              		.loc 1 41 7 is_stmt 1
  42:main.c        ****       adc_software_trigger_enable(ADC0, // Trigger another ADC conversion!
 280              		.loc 1 42 7
  43:main.c        ****                                 ADC_REGULAR_CHANNEL);
 281              		.loc 1 43 7
 282 019a 8545     		li	a1,1
 283 019c 4E85     		mv	a0,s3
 284 019e 97000000 		call	adc_software_trigger_enable
 284      E7800000 
 285              	.LVL31:
  46:main.c        ****       delay_1ms(100);
 286              		.loc 1 46 5
  46:main.c        ****       delay_1ms(100);
 287              		.loc 1 46 7 is_stmt 0
 288 01a6 E31694EE 		bne	s0,s1,.L4
 289 01aa F5BD     		j	.L17
 290              		.cfi_endproc
 291              	.LFE2:
 293              		.globl	wave
 294              		.section	.bss.wave,"aw",@nobits
 295              		.align	2
 296              		.set	.LANCHOR0,. + 0
 299              	wave:
 300 0000 00000000 		.zero	1024
 300      00000000 
 300      00000000 
 300      00000000 
 300      00000000 
 301              		.text
 302              	.Letext0:
 303              		.file 2 "c:\\toolchain-gd32v-win-001\\toolchain-gd32v-win\\compiler\\riscv64-unknown-elf\\include\
 304              		.file 3 "c:\\toolchain-gd32v-win-001\\toolchain-gd32v-win\\compiler\\riscv64-unknown-elf\\include\
 305              		.file 4 "c:\\toolchain-gd32v-win-001\\toolchain-gd32v-win\\compiler\\lib\\gcc\\riscv64-unknown-elf
 306              		.file 5 "c:\\toolchain-gd32v-win-001\\toolchain-gd32v-win\\compiler\\riscv64-unknown-elf\\include\
 307              		.file 6 "c:\\toolchain-gd32v-win-001\\toolchain-gd32v-win\\compiler\\riscv64-unknown-elf\\include\
 308              		.file 7 "c:\\toolchain-gd32v-win-001\\toolchain-gd32v-win\\compiler\\riscv64-unknown-elf\\include\
 309              		.file 8 "../../firmware/GD32VF103_standard_peripheral/system_gd32vf103.h"
 310              		.file 9 "c:\\toolchain-gd32v-win-001\\toolchain-gd32v-win\\compiler\\riscv64-unknown-elf\\include\
 311              		.file 10 "lcd.h"
 312              		.file 11 "fft.h"
 313              		.file 12 "cordic-math.h"
 314              		.file 13 "adc.h"
 315              		.file 14 "../../firmware/GD32VF103_standard_peripheral/Include/gd32vf103_adc.h"
 316              		.file 15 "delay.h"
 317              		.file 16 "../../firmware/GD32VF103_standard_peripheral/gd32vf103.h"
GAS LISTING C:\Users\Jesper\AppData\Local\Temp\cc7Kl7lD.s 			page 9


DEFINED SYMBOLS
                            *ABS*:0000000000000000 main.c
C:\Users\Jesper\AppData\Local\Temp\cc7Kl7lD.s:13     .text.startup.main:0000000000000000 main
C:\Users\Jesper\AppData\Local\Temp\cc7Kl7lD.s:17     .text.startup.main:0000000000000000 .L0 
C:\Users\Jesper\AppData\Local\Temp\cc7Kl7lD.s:18     .text.startup.main:0000000000000000 .L0 
C:\Users\Jesper\AppData\Local\Temp\cc7Kl7lD.s:20     .text.startup.main:0000000000000000 .L0 
C:\Users\Jesper\AppData\Local\Temp\cc7Kl7lD.s:23     .text.startup.main:0000000000000000 .L0 
C:\Users\Jesper\AppData\Local\Temp\cc7Kl7lD.s:24     .text.startup.main:0000000000000000 .L0 
C:\Users\Jesper\AppData\Local\Temp\cc7Kl7lD.s:26     .text.startup.main:0000000000000002 .L0 
C:\Users\Jesper\AppData\Local\Temp\cc7Kl7lD.s:28     .text.startup.main:0000000000000004 .L0 
C:\Users\Jesper\AppData\Local\Temp\cc7Kl7lD.s:31     .text.startup.main:000000000000000a .L0 
C:\Users\Jesper\AppData\Local\Temp\cc7Kl7lD.s:44     .text.startup.main:0000000000000024 .L0 
C:\Users\Jesper\AppData\Local\Temp\cc7Kl7lD.s:45     .text.startup.main:0000000000000024 .L0 
C:\Users\Jesper\AppData\Local\Temp\cc7Kl7lD.s:46     .text.startup.main:0000000000000024 .L0 
C:\Users\Jesper\AppData\Local\Temp\cc7Kl7lD.s:47     .text.startup.main:0000000000000024 .L0 
C:\Users\Jesper\AppData\Local\Temp\cc7Kl7lD.s:48     .text.startup.main:0000000000000024 .L0 
C:\Users\Jesper\AppData\Local\Temp\cc7Kl7lD.s:49     .text.startup.main:0000000000000024 .L0 
C:\Users\Jesper\AppData\Local\Temp\cc7Kl7lD.s:50     .text.startup.main:0000000000000024 .L0 
C:\Users\Jesper\AppData\Local\Temp\cc7Kl7lD.s:51     .text.startup.main:0000000000000024 .L0 
C:\Users\Jesper\AppData\Local\Temp\cc7Kl7lD.s:52     .text.startup.main:0000000000000024 .L0 
C:\Users\Jesper\AppData\Local\Temp\cc7Kl7lD.s:53     .text.startup.main:0000000000000024 .L0 
C:\Users\Jesper\AppData\Local\Temp\cc7Kl7lD.s:54     .text.startup.main:0000000000000024 .L0 
C:\Users\Jesper\AppData\Local\Temp\cc7Kl7lD.s:57     .text.startup.main:0000000000000028 .L0 
C:\Users\Jesper\AppData\Local\Temp\cc7Kl7lD.s:63     .text.startup.main:0000000000000030 .L0 
C:\Users\Jesper\AppData\Local\Temp\cc7Kl7lD.s:64     .text.startup.main:0000000000000030 .L0 
C:\Users\Jesper\AppData\Local\Temp\cc7Kl7lD.s:66     .text.startup.main:0000000000000034 .L0 
C:\Users\Jesper\AppData\Local\Temp\cc7Kl7lD.s:67     .text.startup.main:0000000000000034 .L0 
C:\Users\Jesper\AppData\Local\Temp\cc7Kl7lD.s:70     .text.startup.main:000000000000003a .L0 
C:\Users\Jesper\AppData\Local\Temp\cc7Kl7lD.s:73     .text.startup.main:000000000000003e .L0 
C:\Users\Jesper\AppData\Local\Temp\cc7Kl7lD.s:74     .text.startup.main:000000000000003e .L0 
C:\Users\Jesper\AppData\Local\Temp\cc7Kl7lD.s:76     .text.startup.main:000000000000003e .L0 
C:\Users\Jesper\AppData\Local\Temp\cc7Kl7lD.s:77     .text.startup.main:000000000000003e .L0 
C:\Users\Jesper\AppData\Local\Temp\cc7Kl7lD.s:78     .text.startup.main:000000000000003e .L0 
C:\Users\Jesper\AppData\Local\Temp\cc7Kl7lD.s:82     .text.startup.main:0000000000000048 .L0 
C:\Users\Jesper\AppData\Local\Temp\cc7Kl7lD.s:86     .text.startup.main:0000000000000052 .L0 
C:\Users\Jesper\AppData\Local\Temp\cc7Kl7lD.s:89     .text.startup.main:000000000000005a .L0 
C:\Users\Jesper\AppData\Local\Temp\cc7Kl7lD.s:96     .text.startup.main:0000000000000070 .L0 
C:\Users\Jesper\AppData\Local\Temp\cc7Kl7lD.s:98     .text.startup.main:0000000000000074 .L0 
C:\Users\Jesper\AppData\Local\Temp\cc7Kl7lD.s:101    .text.startup.main:0000000000000076 .L0 
C:\Users\Jesper\AppData\Local\Temp\cc7Kl7lD.s:106    .text.startup.main:000000000000007e .L0 
C:\Users\Jesper\AppData\Local\Temp\cc7Kl7lD.s:108    .text.startup.main:0000000000000082 .L0 
C:\Users\Jesper\AppData\Local\Temp\cc7Kl7lD.s:110    .text.startup.main:0000000000000084 .L0 
C:\Users\Jesper\AppData\Local\Temp\cc7Kl7lD.s:112    .text.startup.main:0000000000000088 .L0 
C:\Users\Jesper\AppData\Local\Temp\cc7Kl7lD.s:115    .text.startup.main:000000000000008c .L0 
C:\Users\Jesper\AppData\Local\Temp\cc7Kl7lD.s:119    .text.startup.main:0000000000000090 .L0 
C:\Users\Jesper\AppData\Local\Temp\cc7Kl7lD.s:123    .text.startup.main:0000000000000092 .L0 
C:\Users\Jesper\AppData\Local\Temp\cc7Kl7lD.s:124    .text.startup.main:0000000000000092 .L0 
C:\Users\Jesper\AppData\Local\Temp\cc7Kl7lD.s:125    .text.startup.main:0000000000000092 .L0 
C:\Users\Jesper\AppData\Local\Temp\cc7Kl7lD.s:130    .text.startup.main:000000000000009e .L0 
C:\Users\Jesper\AppData\Local\Temp\cc7Kl7lD.s:132    .text.startup.main:00000000000000a2 .L0 
C:\Users\Jesper\AppData\Local\Temp\cc7Kl7lD.s:133    .text.startup.main:00000000000000a2 .L0 
C:\Users\Jesper\AppData\Local\Temp\cc7Kl7lD.s:136    .text.startup.main:00000000000000a6 .L0 
C:\Users\Jesper\AppData\Local\Temp\cc7Kl7lD.s:140    .text.startup.main:00000000000000b2 .L0 
C:\Users\Jesper\AppData\Local\Temp\cc7Kl7lD.s:144    .text.startup.main:00000000000000bc .L0 
C:\Users\Jesper\AppData\Local\Temp\cc7Kl7lD.s:147    .text.startup.main:00000000000000c4 .L0 
C:\Users\Jesper\AppData\Local\Temp\cc7Kl7lD.s:152    .text.startup.main:00000000000000d4 .L0 
C:\Users\Jesper\AppData\Local\Temp\cc7Kl7lD.s:156    .text.startup.main:00000000000000dc .L0 
GAS LISTING C:\Users\Jesper\AppData\Local\Temp\cc7Kl7lD.s 			page 10


C:\Users\Jesper\AppData\Local\Temp\cc7Kl7lD.s:158    .text.startup.main:00000000000000dc .L0 
C:\Users\Jesper\AppData\Local\Temp\cc7Kl7lD.s:159    .text.startup.main:00000000000000dc .L0 
C:\Users\Jesper\AppData\Local\Temp\cc7Kl7lD.s:162    .text.startup.main:00000000000000de .L0 
C:\Users\Jesper\AppData\Local\Temp\cc7Kl7lD.s:166    .text.startup.main:00000000000000e0 .L0 
C:\Users\Jesper\AppData\Local\Temp\cc7Kl7lD.s:167    .text.startup.main:00000000000000e0 .L0 
C:\Users\Jesper\AppData\Local\Temp\cc7Kl7lD.s:173    .text.startup.main:00000000000000f2 .L0 
C:\Users\Jesper\AppData\Local\Temp\cc7Kl7lD.s:175    .text.startup.main:00000000000000f6 .L0 
C:\Users\Jesper\AppData\Local\Temp\cc7Kl7lD.s:177    .text.startup.main:00000000000000f8 .L0 
C:\Users\Jesper\AppData\Local\Temp\cc7Kl7lD.s:181    .text.startup.main:00000000000000fe .L0 
C:\Users\Jesper\AppData\Local\Temp\cc7Kl7lD.s:184    .text.startup.main:0000000000000100 .L0 
C:\Users\Jesper\AppData\Local\Temp\cc7Kl7lD.s:189    .text.startup.main:0000000000000110 .L0 
C:\Users\Jesper\AppData\Local\Temp\cc7Kl7lD.s:192    .text.startup.main:0000000000000114 .L0 
C:\Users\Jesper\AppData\Local\Temp\cc7Kl7lD.s:198    .text.startup.main:0000000000000124 .L0 
C:\Users\Jesper\AppData\Local\Temp\cc7Kl7lD.s:199    .text.startup.main:0000000000000124 .L0 
C:\Users\Jesper\AppData\Local\Temp\cc7Kl7lD.s:203    .text.startup.main:0000000000000126 .L0 
C:\Users\Jesper\AppData\Local\Temp\cc7Kl7lD.s:204    .text.startup.main:0000000000000126 .L0 
C:\Users\Jesper\AppData\Local\Temp\cc7Kl7lD.s:206    .text.startup.main:000000000000012a .L0 
C:\Users\Jesper\AppData\Local\Temp\cc7Kl7lD.s:207    .text.startup.main:000000000000012a .L0 
C:\Users\Jesper\AppData\Local\Temp\cc7Kl7lD.s:210    .text.startup.main:0000000000000130 .L0 
C:\Users\Jesper\AppData\Local\Temp\cc7Kl7lD.s:215    .text.startup.main:0000000000000136 .L0 
C:\Users\Jesper\AppData\Local\Temp\cc7Kl7lD.s:218    .text.startup.main:0000000000000138 .L0 
C:\Users\Jesper\AppData\Local\Temp\cc7Kl7lD.s:222    .text.startup.main:000000000000013a .L0 
C:\Users\Jesper\AppData\Local\Temp\cc7Kl7lD.s:223    .text.startup.main:000000000000013a .L0 
C:\Users\Jesper\AppData\Local\Temp\cc7Kl7lD.s:225    .text.startup.main:000000000000013e .L0 
C:\Users\Jesper\AppData\Local\Temp\cc7Kl7lD.s:228    .text.startup.main:0000000000000142 .L0 
C:\Users\Jesper\AppData\Local\Temp\cc7Kl7lD.s:230    .text.startup.main:0000000000000146 .L0 
C:\Users\Jesper\AppData\Local\Temp\cc7Kl7lD.s:234    .text.startup.main:000000000000014a .L0 
C:\Users\Jesper\AppData\Local\Temp\cc7Kl7lD.s:238    .text.startup.main:0000000000000156 .L0 
C:\Users\Jesper\AppData\Local\Temp\cc7Kl7lD.s:241    .text.startup.main:000000000000015a .L0 
C:\Users\Jesper\AppData\Local\Temp\cc7Kl7lD.s:244    .text.startup.main:0000000000000162 .L0 
C:\Users\Jesper\AppData\Local\Temp\cc7Kl7lD.s:248    .text.startup.main:0000000000000164 .L0 
C:\Users\Jesper\AppData\Local\Temp\cc7Kl7lD.s:249    .text.startup.main:0000000000000164 .L0 
C:\Users\Jesper\AppData\Local\Temp\cc7Kl7lD.s:253    .text.startup.main:000000000000016e .L0 
C:\Users\Jesper\AppData\Local\Temp\cc7Kl7lD.s:254    .text.startup.main:000000000000016e .L0 
C:\Users\Jesper\AppData\Local\Temp\cc7Kl7lD.s:257    .text.startup.main:0000000000000172 .L0 
C:\Users\Jesper\AppData\Local\Temp\cc7Kl7lD.s:260    .text.startup.main:0000000000000178 .L0 
C:\Users\Jesper\AppData\Local\Temp\cc7Kl7lD.s:262    .text.startup.main:000000000000017c .L0 
C:\Users\Jesper\AppData\Local\Temp\cc7Kl7lD.s:265    .text.startup.main:0000000000000180 .L0 
C:\Users\Jesper\AppData\Local\Temp\cc7Kl7lD.s:267    .text.startup.main:0000000000000182 .L0 
C:\Users\Jesper\AppData\Local\Temp\cc7Kl7lD.s:268    .text.startup.main:0000000000000182 .L0 
C:\Users\Jesper\AppData\Local\Temp\cc7Kl7lD.s:270    .text.startup.main:0000000000000186 .L0 
C:\Users\Jesper\AppData\Local\Temp\cc7Kl7lD.s:273    .text.startup.main:000000000000018e .L0 
C:\Users\Jesper\AppData\Local\Temp\cc7Kl7lD.s:277    .text.startup.main:0000000000000198 .L0 
C:\Users\Jesper\AppData\Local\Temp\cc7Kl7lD.s:280    .text.startup.main:000000000000019a .L0 
C:\Users\Jesper\AppData\Local\Temp\cc7Kl7lD.s:281    .text.startup.main:000000000000019a .L0 
C:\Users\Jesper\AppData\Local\Temp\cc7Kl7lD.s:282    .text.startup.main:000000000000019a .L0 
C:\Users\Jesper\AppData\Local\Temp\cc7Kl7lD.s:287    .text.startup.main:00000000000001a6 .L0 
C:\Users\Jesper\AppData\Local\Temp\cc7Kl7lD.s:288    .text.startup.main:00000000000001a6 .L0 
C:\Users\Jesper\AppData\Local\Temp\cc7Kl7lD.s:290    .text.startup.main:00000000000001ac .L0 
C:\Users\Jesper\AppData\Local\Temp\cc7Kl7lD.s:299    .bss.wave:0000000000000000 wave
C:\Users\Jesper\AppData\Local\Temp\cc7Kl7lD.s:296    .bss.wave:0000000000000000 .LANCHOR0
C:\Users\Jesper\AppData\Local\Temp\cc7Kl7lD.s:294    .text.startup.main:00000000000001ac .L0 
                     .debug_frame:0000000000000000 .L0 
C:\Users\Jesper\AppData\Local\Temp\cc7Kl7lD.s:60     .text.startup.main:0000000000000030 .L2
C:\Users\Jesper\AppData\Local\Temp\cc7Kl7lD.s:246    .text.startup.main:0000000000000164 .L16
C:\Users\Jesper\AppData\Local\Temp\cc7Kl7lD.s:121    .text.startup.main:0000000000000092 .L4
C:\Users\Jesper\AppData\Local\Temp\cc7Kl7lD.s:164    .text.startup.main:00000000000000e0 .L5
GAS LISTING C:\Users\Jesper\AppData\Local\Temp\cc7Kl7lD.s 			page 11


C:\Users\Jesper\AppData\Local\Temp\cc7Kl7lD.s:201    .text.startup.main:0000000000000126 .L6
C:\Users\Jesper\AppData\Local\Temp\cc7Kl7lD.s:219    .text.startup.main:000000000000013a .L7
C:\Users\Jesper\AppData\Local\Temp\cc7Kl7lD.s:116    .text.startup.main:0000000000000090 .L8
C:\Users\Jesper\AppData\Local\Temp\cc7Kl7lD.s:134    .text.startup.main:00000000000000a6 .L17
C:\Users\Jesper\AppData\Local\Temp\cc7Kl7lD.s:2259   .debug_abbrev:0000000000000000 .Ldebug_abbrev0
C:\Users\Jesper\AppData\Local\Temp\cc7Kl7lD.s:3235   .debug_str:000000000000035d .LASF152
C:\Users\Jesper\AppData\Local\Temp\cc7Kl7lD.s:3215   .debug_str:00000000000002f6 .LASF153
C:\Users\Jesper\AppData\Local\Temp\cc7Kl7lD.s:3109   .debug_str:00000000000000b8 .LASF154
C:\Users\Jesper\AppData\Local\Temp\cc7Kl7lD.s:3053   .debug_ranges:0000000000000000 .Ldebug_ranges0
C:\Users\Jesper\AppData\Local\Temp\cc7Kl7lD.s:3075   .debug_line:0000000000000000 .Ldebug_line0
C:\Users\Jesper\AppData\Local\Temp\cc7Kl7lD.s:3323   .debug_str:0000000000000566 .LASF0
C:\Users\Jesper\AppData\Local\Temp\cc7Kl7lD.s:3121   .debug_str:0000000000000129 .LASF1
C:\Users\Jesper\AppData\Local\Temp\cc7Kl7lD.s:3087   .debug_str:0000000000000031 .LASF6
C:\Users\Jesper\AppData\Local\Temp\cc7Kl7lD.s:3261   .debug_str:000000000000045b .LASF2
C:\Users\Jesper\AppData\Local\Temp\cc7Kl7lD.s:3079   .debug_str:000000000000000c .LASF3
C:\Users\Jesper\AppData\Local\Temp\cc7Kl7lD.s:3161   .debug_str:00000000000001e9 .LASF4
C:\Users\Jesper\AppData\Local\Temp\cc7Kl7lD.s:3093   .debug_str:000000000000004f .LASF5
C:\Users\Jesper\AppData\Local\Temp\cc7Kl7lD.s:3165   .debug_str:0000000000000201 .LASF7
C:\Users\Jesper\AppData\Local\Temp\cc7Kl7lD.s:3193   .debug_str:0000000000000284 .LASF8
C:\Users\Jesper\AppData\Local\Temp\cc7Kl7lD.s:3153   .debug_str:00000000000001b4 .LASF9
C:\Users\Jesper\AppData\Local\Temp\cc7Kl7lD.s:3101   .debug_str:0000000000000083 .LASF10
C:\Users\Jesper\AppData\Local\Temp\cc7Kl7lD.s:3325   .debug_str:0000000000000573 .LASF11
C:\Users\Jesper\AppData\Local\Temp\cc7Kl7lD.s:3347   .debug_str:00000000000005e0 .LASF12
C:\Users\Jesper\AppData\Local\Temp\cc7Kl7lD.s:3187   .debug_str:0000000000000264 .LASF123
C:\Users\Jesper\AppData\Local\Temp\cc7Kl7lD.s:3257   .debug_str:0000000000000448 .LASF13
C:\Users\Jesper\AppData\Local\Temp\cc7Kl7lD.s:3311   .debug_str:0000000000000538 .LASF14
C:\Users\Jesper\AppData\Local\Temp\cc7Kl7lD.s:3247   .debug_str:000000000000040c .LASF15
C:\Users\Jesper\AppData\Local\Temp\cc7Kl7lD.s:3117   .debug_str:000000000000011b .LASF16
C:\Users\Jesper\AppData\Local\Temp\cc7Kl7lD.s:3309   .debug_str:0000000000000530 .LASF17
C:\Users\Jesper\AppData\Local\Temp\cc7Kl7lD.s:3359   .debug_str:0000000000000616 .LASF18
C:\Users\Jesper\AppData\Local\Temp\cc7Kl7lD.s:3213   .debug_str:00000000000002f0 .LASF19
C:\Users\Jesper\AppData\Local\Temp\cc7Kl7lD.s:3185   .debug_str:000000000000025d .LASF20
C:\Users\Jesper\AppData\Local\Temp\cc7Kl7lD.s:3299   .debug_str:000000000000050b .LASF21
C:\Users\Jesper\AppData\Local\Temp\cc7Kl7lD.s:3301   .debug_str:0000000000000513 .LASF22
C:\Users\Jesper\AppData\Local\Temp\cc7Kl7lD.s:3253   .debug_str:000000000000042b .LASF23
C:\Users\Jesper\AppData\Local\Temp\cc7Kl7lD.s:3341   .debug_str:00000000000005b8 .LASF24
C:\Users\Jesper\AppData\Local\Temp\cc7Kl7lD.s:3255   .debug_str:0000000000000436 .LASF25
C:\Users\Jesper\AppData\Local\Temp\cc7Kl7lD.s:3267   .debug_str:0000000000000478 .LASF26
C:\Users\Jesper\AppData\Local\Temp\cc7Kl7lD.s:3173   .debug_str:0000000000000226 .LASF31
C:\Users\Jesper\AppData\Local\Temp\cc7Kl7lD.s:3329   .debug_str:0000000000000583 .LASF27
C:\Users\Jesper\AppData\Local\Temp\cc7Kl7lD.s:3293   .debug_str:00000000000004f6 .LASF28
C:\Users\Jesper\AppData\Local\Temp\cc7Kl7lD.s:3167   .debug_str:000000000000020c .LASF29
C:\Users\Jesper\AppData\Local\Temp\cc7Kl7lD.s:3355   .debug_str:000000000000060b .LASF30
C:\Users\Jesper\AppData\Local\Temp\cc7Kl7lD.s:3181   .debug_str:0000000000000246 .LASF32
C:\Users\Jesper\AppData\Local\Temp\cc7Kl7lD.s:3115   .debug_str:0000000000000112 .LASF33
C:\Users\Jesper\AppData\Local\Temp\cc7Kl7lD.s:3375   .debug_str:0000000000000660 .LASF34
C:\Users\Jesper\AppData\Local\Temp\cc7Kl7lD.s:3127   .debug_str:0000000000000145 .LASF35
C:\Users\Jesper\AppData\Local\Temp\cc7Kl7lD.s:3389   .debug_str:000000000000069e .LASF36
C:\Users\Jesper\AppData\Local\Temp\cc7Kl7lD.s:3237   .debug_str:00000000000003d7 .LASF37
C:\Users\Jesper\AppData\Local\Temp\cc7Kl7lD.s:3225   .debug_str:000000000000032c .LASF38
C:\Users\Jesper\AppData\Local\Temp\cc7Kl7lD.s:3305   .debug_str:0000000000000521 .LASF39
C:\Users\Jesper\AppData\Local\Temp\cc7Kl7lD.s:3269   .debug_str:0000000000000481 .LASF40
C:\Users\Jesper\AppData\Local\Temp\cc7Kl7lD.s:3369   .debug_str:0000000000000641 .LASF41
C:\Users\Jesper\AppData\Local\Temp\cc7Kl7lD.s:3131   .debug_str:0000000000000154 .LASF42
C:\Users\Jesper\AppData\Local\Temp\cc7Kl7lD.s:3081   .debug_str:0000000000000016 .LASF43
C:\Users\Jesper\AppData\Local\Temp\cc7Kl7lD.s:3077   .debug_str:0000000000000000 .LASF44
C:\Users\Jesper\AppData\Local\Temp\cc7Kl7lD.s:3333   .debug_str:0000000000000596 .LASF45
GAS LISTING C:\Users\Jesper\AppData\Local\Temp\cc7Kl7lD.s 			page 12


C:\Users\Jesper\AppData\Local\Temp\cc7Kl7lD.s:3145   .debug_str:0000000000000195 .LASF46
C:\Users\Jesper\AppData\Local\Temp\cc7Kl7lD.s:3239   .debug_str:00000000000003e0 .LASF47
C:\Users\Jesper\AppData\Local\Temp\cc7Kl7lD.s:3199   .debug_str:00000000000002b2 .LASF48
C:\Users\Jesper\AppData\Local\Temp\cc7Kl7lD.s:3163   .debug_str:00000000000001fc .LASF49
C:\Users\Jesper\AppData\Local\Temp\cc7Kl7lD.s:3271   .debug_str:000000000000048b .LASF50
C:\Users\Jesper\AppData\Local\Temp\cc7Kl7lD.s:3125   .debug_str:000000000000013f .LASF51
C:\Users\Jesper\AppData\Local\Temp\cc7Kl7lD.s:3321   .debug_str:0000000000000560 .LASF52
C:\Users\Jesper\AppData\Local\Temp\cc7Kl7lD.s:3277   .debug_str:00000000000004a1 .LASF53
C:\Users\Jesper\AppData\Local\Temp\cc7Kl7lD.s:3143   .debug_str:000000000000018e .LASF54
C:\Users\Jesper\AppData\Local\Temp\cc7Kl7lD.s:3195   .debug_str:0000000000000296 .LASF55
C:\Users\Jesper\AppData\Local\Temp\cc7Kl7lD.s:3103   .debug_str:000000000000009a .LASF56
C:\Users\Jesper\AppData\Local\Temp\cc7Kl7lD.s:3133   .debug_str:0000000000000162 .LASF57
C:\Users\Jesper\AppData\Local\Temp\cc7Kl7lD.s:3175   .debug_str:000000000000022e .LASF58
C:\Users\Jesper\AppData\Local\Temp\cc7Kl7lD.s:3223   .debug_str:0000000000000325 .LASF59
C:\Users\Jesper\AppData\Local\Temp\cc7Kl7lD.s:3303   .debug_str:000000000000051b .LASF60
C:\Users\Jesper\AppData\Local\Temp\cc7Kl7lD.s:3119   .debug_str:0000000000000122 .LASF61
C:\Users\Jesper\AppData\Local\Temp\cc7Kl7lD.s:3149   .debug_str:00000000000001a4 .LASF62
C:\Users\Jesper\AppData\Local\Temp\cc7Kl7lD.s:3365   .debug_str:0000000000000633 .LASF63
C:\Users\Jesper\AppData\Local\Temp\cc7Kl7lD.s:3319   .debug_str:0000000000000557 .LASF64
C:\Users\Jesper\AppData\Local\Temp\cc7Kl7lD.s:3155   .debug_str:00000000000001c2 .LASF65
C:\Users\Jesper\AppData\Local\Temp\cc7Kl7lD.s:3201   .debug_str:00000000000002b7 .LASF66
C:\Users\Jesper\AppData\Local\Temp\cc7Kl7lD.s:3219   .debug_str:0000000000000319 .LASF67
C:\Users\Jesper\AppData\Local\Temp\cc7Kl7lD.s:3279   .debug_str:00000000000004a9 .LASF68
C:\Users\Jesper\AppData\Local\Temp\cc7Kl7lD.s:3273   .debug_str:0000000000000492 .LASF69
C:\Users\Jesper\AppData\Local\Temp\cc7Kl7lD.s:3295   .debug_str:00000000000004fe .LASF70
C:\Users\Jesper\AppData\Local\Temp\cc7Kl7lD.s:3315   .debug_str:000000000000054b .LASF71
C:\Users\Jesper\AppData\Local\Temp\cc7Kl7lD.s:3147   .debug_str:000000000000019d .LASF72
C:\Users\Jesper\AppData\Local\Temp\cc7Kl7lD.s:3189   .debug_str:0000000000000274 .LASF73
C:\Users\Jesper\AppData\Local\Temp\cc7Kl7lD.s:3171   .debug_str:000000000000021e .LASF74
C:\Users\Jesper\AppData\Local\Temp\cc7Kl7lD.s:3283   .debug_str:00000000000004be .LASF75
C:\Users\Jesper\AppData\Local\Temp\cc7Kl7lD.s:3085   .debug_str:0000000000000026 .LASF76
C:\Users\Jesper\AppData\Local\Temp\cc7Kl7lD.s:3291   .debug_str:00000000000004dd .LASF77
C:\Users\Jesper\AppData\Local\Temp\cc7Kl7lD.s:3287   .debug_str:00000000000004cb .LASF78
C:\Users\Jesper\AppData\Local\Temp\cc7Kl7lD.s:3243   .debug_str:00000000000003f2 .LASF79
C:\Users\Jesper\AppData\Local\Temp\cc7Kl7lD.s:3289   .debug_str:00000000000004d3 .LASF80
C:\Users\Jesper\AppData\Local\Temp\cc7Kl7lD.s:3211   .debug_str:00000000000002e8 .LASF81
C:\Users\Jesper\AppData\Local\Temp\cc7Kl7lD.s:3151   .debug_str:00000000000001aa .LASF82
C:\Users\Jesper\AppData\Local\Temp\cc7Kl7lD.s:3383   .debug_str:000000000000068f .LASF83
C:\Users\Jesper\AppData\Local\Temp\cc7Kl7lD.s:3249   .debug_str:0000000000000413 .LASF84
C:\Users\Jesper\AppData\Local\Temp\cc7Kl7lD.s:3191   .debug_str:000000000000027c .LASF85
C:\Users\Jesper\AppData\Local\Temp\cc7Kl7lD.s:3285   .debug_str:00000000000004c3 .LASF86
C:\Users\Jesper\AppData\Local\Temp\cc7Kl7lD.s:3141   .debug_str:0000000000000189 .LASF87
C:\Users\Jesper\AppData\Local\Temp\cc7Kl7lD.s:3091   .debug_str:0000000000000046 .LASF88
C:\Users\Jesper\AppData\Local\Temp\cc7Kl7lD.s:3363   .debug_str:0000000000000629 .LASF89
C:\Users\Jesper\AppData\Local\Temp\cc7Kl7lD.s:3135   .debug_str:000000000000016a .LASF90
C:\Users\Jesper\AppData\Local\Temp\cc7Kl7lD.s:3129   .debug_str:000000000000014f .LASF91
C:\Users\Jesper\AppData\Local\Temp\cc7Kl7lD.s:3317   .debug_str:0000000000000552 .LASF92
C:\Users\Jesper\AppData\Local\Temp\cc7Kl7lD.s:3275   .debug_str:000000000000049a .LASF93
C:\Users\Jesper\AppData\Local\Temp\cc7Kl7lD.s:3357   .debug_str:0000000000000610 .LASF94
C:\Users\Jesper\AppData\Local\Temp\cc7Kl7lD.s:3203   .debug_str:00000000000002bd .LASF95
C:\Users\Jesper\AppData\Local\Temp\cc7Kl7lD.s:3263   .debug_str:0000000000000469 .LASF96
C:\Users\Jesper\AppData\Local\Temp\cc7Kl7lD.s:3083   .debug_str:000000000000001e .LASF97
C:\Users\Jesper\AppData\Local\Temp\cc7Kl7lD.s:3297   .debug_str:0000000000000505 .LASF98
C:\Users\Jesper\AppData\Local\Temp\cc7Kl7lD.s:3221   .debug_str:000000000000031f .LASF99
C:\Users\Jesper\AppData\Local\Temp\cc7Kl7lD.s:3339   .debug_str:00000000000005b3 .LASF100
C:\Users\Jesper\AppData\Local\Temp\cc7Kl7lD.s:3351   .debug_str:00000000000005ee .LASF101
C:\Users\Jesper\AppData\Local\Temp\cc7Kl7lD.s:3331   .debug_str:0000000000000589 .LASF102
GAS LISTING C:\Users\Jesper\AppData\Local\Temp\cc7Kl7lD.s 			page 13


C:\Users\Jesper\AppData\Local\Temp\cc7Kl7lD.s:3209   .debug_str:00000000000002db .LASF103
C:\Users\Jesper\AppData\Local\Temp\cc7Kl7lD.s:3371   .debug_str:000000000000064c .LASF104
C:\Users\Jesper\AppData\Local\Temp\cc7Kl7lD.s:3245   .debug_str:00000000000003fd .LASF105
C:\Users\Jesper\AppData\Local\Temp\cc7Kl7lD.s:3205   .debug_str:00000000000002c4 .LASF106
C:\Users\Jesper\AppData\Local\Temp\cc7Kl7lD.s:3233   .debug_str:0000000000000358 .LASF107
C:\Users\Jesper\AppData\Local\Temp\cc7Kl7lD.s:3259   .debug_str:000000000000044e .LASF108
C:\Users\Jesper\AppData\Local\Temp\cc7Kl7lD.s:3381   .debug_str:0000000000000681 .LASF109
C:\Users\Jesper\AppData\Local\Temp\cc7Kl7lD.s:3113   .debug_str:0000000000000104 .LASF110
C:\Users\Jesper\AppData\Local\Temp\cc7Kl7lD.s:3361   .debug_str:000000000000061f .LASF111
C:\Users\Jesper\AppData\Local\Temp\cc7Kl7lD.s:3207   .debug_str:00000000000002cf .LASF112
C:\Users\Jesper\AppData\Local\Temp\cc7Kl7lD.s:3343   .debug_str:00000000000005c0 .LASF113
C:\Users\Jesper\AppData\Local\Temp\cc7Kl7lD.s:3159   .debug_str:00000000000001db .LASF114
C:\Users\Jesper\AppData\Local\Temp\cc7Kl7lD.s:3111   .debug_str:00000000000000f5 .LASF115
C:\Users\Jesper\AppData\Local\Temp\cc7Kl7lD.s:3157   .debug_str:00000000000001ca .LASF116
C:\Users\Jesper\AppData\Local\Temp\cc7Kl7lD.s:3095   .debug_str:0000000000000058 .LASF117
C:\Users\Jesper\AppData\Local\Temp\cc7Kl7lD.s:3097   .debug_str:0000000000000067 .LASF118
C:\Users\Jesper\AppData\Local\Temp\cc7Kl7lD.s:3265   .debug_str:000000000000046f .LASF119
C:\Users\Jesper\AppData\Local\Temp\cc7Kl7lD.s:3231   .debug_str:0000000000000351 .LASF120
C:\Users\Jesper\AppData\Local\Temp\cc7Kl7lD.s:3227   .debug_str:0000000000000336 .LASF121
C:\Users\Jesper\AppData\Local\Temp\cc7Kl7lD.s:3367   .debug_str:0000000000000639 .LASF122
C:\Users\Jesper\AppData\Local\Temp\cc7Kl7lD.s:3107   .debug_str:00000000000000ad .LASF155
C:\Users\Jesper\AppData\Local\Temp\cc7Kl7lD.s:3169   .debug_str:0000000000000212 .LASF124
C:\Users\Jesper\AppData\Local\Temp\cc7Kl7lD.s:3345   .debug_str:00000000000005cd .LASF125
C:\Users\Jesper\AppData\Local\Temp\cc7Kl7lD.s:3241   .debug_str:00000000000003e8 .LASF126
C:\Users\Jesper\AppData\Local\Temp\cc7Kl7lD.s:3099   .debug_str:0000000000000078 .LASF127
C:\Users\Jesper\AppData\Local\Temp\cc7Kl7lD.s:3373   .debug_str:000000000000065b .LASF128
C:\Users\Jesper\AppData\Local\Temp\cc7Kl7lD.s:3307   .debug_str:000000000000052b .LASF129
C:\Users\Jesper\AppData\Local\Temp\cc7Kl7lD.s:3327   .debug_str:000000000000057b .LASF130
C:\Users\Jesper\AppData\Local\Temp\cc7Kl7lD.s:3349   .debug_str:00000000000005e9 .LASF131
C:\Users\Jesper\AppData\Local\Temp\cc7Kl7lD.s:3387   .debug_str:0000000000000699 .LASF156
C:\Users\Jesper\AppData\Local\Temp\cc7Kl7lD.s:14     .text.startup.main:0000000000000000 .LFB2
C:\Users\Jesper\AppData\Local\Temp\cc7Kl7lD.s:291    .text.startup.main:00000000000001ac .LFE2
C:\Users\Jesper\AppData\Local\Temp\cc7Kl7lD.s:2931   .debug_loc:0000000000000000 .LLST0
C:\Users\Jesper\AppData\Local\Temp\cc7Kl7lD.s:3385   .debug_str:0000000000000694 .LASF134
C:\Users\Jesper\AppData\Local\Temp\cc7Kl7lD.s:3177   .debug_str:0000000000000234 .LASF132
C:\Users\Jesper\AppData\Local\Temp\cc7Kl7lD.s:2944   .debug_loc:0000000000000021 .LLST1
C:\Users\Jesper\AppData\Local\Temp\cc7Kl7lD.s:3337   .debug_str:00000000000005ac .LASF133
C:\Users\Jesper\AppData\Local\Temp\cc7Kl7lD.s:2956   .debug_loc:000000000000003a .LLST2
C:\Users\Jesper\AppData\Local\Temp\cc7Kl7lD.s:3313   .debug_str:0000000000000544 .LASF135
C:\Users\Jesper\AppData\Local\Temp\cc7Kl7lD.s:2977   .debug_loc:0000000000000070 .LLST3
C:\Users\Jesper\AppData\Local\Temp\cc7Kl7lD.s:2985   .debug_loc:0000000000000084 .LLST4
C:\Users\Jesper\AppData\Local\Temp\cc7Kl7lD.s:171    .text.startup.main:00000000000000f2 .LVL15
C:\Users\Jesper\AppData\Local\Temp\cc7Kl7lD.s:187    .text.startup.main:0000000000000110 .LVL17
C:\Users\Jesper\AppData\Local\Temp\cc7Kl7lD.s:197    .text.startup.main:0000000000000124 .LBB8
C:\Users\Jesper\AppData\Local\Temp\cc7Kl7lD.s:212    .text.startup.main:0000000000000136 .LBE8
C:\Users\Jesper\AppData\Local\Temp\cc7Kl7lD.s:3011   .debug_loc:00000000000000c6 .LLST5
C:\Users\Jesper\AppData\Local\Temp\cc7Kl7lD.s:213    .text.startup.main:0000000000000136 .LBB9
C:\Users\Jesper\AppData\Local\Temp\cc7Kl7lD.s:239    .text.startup.main:000000000000015a .LBE9
C:\Users\Jesper\AppData\Local\Temp\cc7Kl7lD.s:3019   .debug_loc:00000000000000da .LLST6
C:\Users\Jesper\AppData\Local\Temp\cc7Kl7lD.s:236    .text.startup.main:0000000000000156 .LVL23
C:\Users\Jesper\AppData\Local\Temp\cc7Kl7lD.s:80     .text.startup.main:0000000000000048 .LVL3
C:\Users\Jesper\AppData\Local\Temp\cc7Kl7lD.s:84     .text.startup.main:0000000000000052 .LVL4
C:\Users\Jesper\AppData\Local\Temp\cc7Kl7lD.s:87     .text.startup.main:000000000000005a .LVL5
C:\Users\Jesper\AppData\Local\Temp\cc7Kl7lD.s:91     .text.startup.main:0000000000000064 .LVL6
C:\Users\Jesper\AppData\Local\Temp\cc7Kl7lD.s:128    .text.startup.main:000000000000009e .LVL8
C:\Users\Jesper\AppData\Local\Temp\cc7Kl7lD.s:138    .text.startup.main:00000000000000b2 .LVL9
C:\Users\Jesper\AppData\Local\Temp\cc7Kl7lD.s:142    .text.startup.main:00000000000000bc .LVL10
GAS LISTING C:\Users\Jesper\AppData\Local\Temp\cc7Kl7lD.s 			page 14


C:\Users\Jesper\AppData\Local\Temp\cc7Kl7lD.s:145    .text.startup.main:00000000000000c4 .LVL11
C:\Users\Jesper\AppData\Local\Temp\cc7Kl7lD.s:150    .text.startup.main:00000000000000d4 .LVL12
C:\Users\Jesper\AppData\Local\Temp\cc7Kl7lD.s:153    .text.startup.main:00000000000000dc .LVL13
C:\Users\Jesper\AppData\Local\Temp\cc7Kl7lD.s:195    .text.startup.main:0000000000000124 .LVL18
C:\Users\Jesper\AppData\Local\Temp\cc7Kl7lD.s:242    .text.startup.main:0000000000000162 .LVL24
C:\Users\Jesper\AppData\Local\Temp\cc7Kl7lD.s:251    .text.startup.main:000000000000016e .LVL26
C:\Users\Jesper\AppData\Local\Temp\cc7Kl7lD.s:271    .text.startup.main:000000000000018e .LVL28
C:\Users\Jesper\AppData\Local\Temp\cc7Kl7lD.s:275    .text.startup.main:0000000000000198 .LVL29
C:\Users\Jesper\AppData\Local\Temp\cc7Kl7lD.s:285    .text.startup.main:00000000000001a6 .LVL31
C:\Users\Jesper\AppData\Local\Temp\cc7Kl7lD.s:3183   .debug_str:000000000000024b .LASF136
C:\Users\Jesper\AppData\Local\Temp\cc7Kl7lD.s:3335   .debug_str:000000000000059f .LASF137
C:\Users\Jesper\AppData\Local\Temp\cc7Kl7lD.s:3251   .debug_str:000000000000041d .LASF138
C:\Users\Jesper\AppData\Local\Temp\cc7Kl7lD.s:3353   .debug_str:00000000000005fb .LASF139
C:\Users\Jesper\AppData\Local\Temp\cc7Kl7lD.s:3281   .debug_str:00000000000004b2 .LASF140
C:\Users\Jesper\AppData\Local\Temp\cc7Kl7lD.s:3379   .debug_str:0000000000000678 .LASF141
C:\Users\Jesper\AppData\Local\Temp\cc7Kl7lD.s:3137   .debug_str:0000000000000172 .LASF142
C:\Users\Jesper\AppData\Local\Temp\cc7Kl7lD.s:3139   .debug_str:000000000000017c .LASF143
C:\Users\Jesper\AppData\Local\Temp\cc7Kl7lD.s:3105   .debug_str:00000000000000a3 .LASF144
C:\Users\Jesper\AppData\Local\Temp\cc7Kl7lD.s:3229   .debug_str:000000000000033f .LASF145
C:\Users\Jesper\AppData\Local\Temp\cc7Kl7lD.s:3089   .debug_str:000000000000003b .LASF146
C:\Users\Jesper\AppData\Local\Temp\cc7Kl7lD.s:3179   .debug_str:000000000000023a .LASF147
C:\Users\Jesper\AppData\Local\Temp\cc7Kl7lD.s:3197   .debug_str:000000000000029c .LASF148
C:\Users\Jesper\AppData\Local\Temp\cc7Kl7lD.s:3377   .debug_str:0000000000000669 .LASF149
C:\Users\Jesper\AppData\Local\Temp\cc7Kl7lD.s:3123   .debug_str:0000000000000135 .LASF150
C:\Users\Jesper\AppData\Local\Temp\cc7Kl7lD.s:3217   .debug_str:00000000000002fd .LASF151
C:\Users\Jesper\AppData\Local\Temp\cc7Kl7lD.s:25     .text.startup.main:0000000000000002 .LCFI0
C:\Users\Jesper\AppData\Local\Temp\cc7Kl7lD.s:255    .text.startup.main:0000000000000172 .LVL27
C:\Users\Jesper\AppData\Local\Temp\cc7Kl7lD.s:75     .text.startup.main:000000000000003e .LVL2
C:\Users\Jesper\AppData\Local\Temp\cc7Kl7lD.s:120    .text.startup.main:0000000000000092 .LVL7
C:\Users\Jesper\AppData\Local\Temp\cc7Kl7lD.s:163    .text.startup.main:00000000000000e0 .LVL14
C:\Users\Jesper\AppData\Local\Temp\cc7Kl7lD.s:245    .text.startup.main:0000000000000164 .LVL25
C:\Users\Jesper\AppData\Local\Temp\cc7Kl7lD.s:21     .text.startup.main:0000000000000000 .LVL0
C:\Users\Jesper\AppData\Local\Temp\cc7Kl7lD.s:59     .text.startup.main:0000000000000030 .LVL1
C:\Users\Jesper\AppData\Local\Temp\cc7Kl7lD.s:182    .text.startup.main:0000000000000100 .LVL16
C:\Users\Jesper\AppData\Local\Temp\cc7Kl7lD.s:216    .text.startup.main:0000000000000138 .LVL20
C:\Users\Jesper\AppData\Local\Temp\cc7Kl7lD.s:200    .text.startup.main:0000000000000126 .LVL19
C:\Users\Jesper\AppData\Local\Temp\cc7Kl7lD.s:220    .text.startup.main:000000000000013a .LVL21
C:\Users\Jesper\AppData\Local\Temp\cc7Kl7lD.s:231    .text.startup.main:0000000000000148 .LVL22
C:\Users\Jesper\AppData\Local\Temp\cc7Kl7lD.s:319    .debug_info:0000000000000000 .Ldebug_info0
C:\Users\Jesper\AppData\Local\Temp\cc7Kl7lD.s:19     .text.startup.main:0000000000000000 .LBB2
C:\Users\Jesper\AppData\Local\Temp\cc7Kl7lD.s:22     .text.startup.main:0000000000000000 .LBE2
C:\Users\Jesper\AppData\Local\Temp\cc7Kl7lD.s:61     .text.startup.main:0000000000000030 .LBB3
C:\Users\Jesper\AppData\Local\Temp\cc7Kl7lD.s:71     .text.startup.main:000000000000003e .LBE3
C:\Users\Jesper\AppData\Local\Temp\cc7Kl7lD.s:99     .text.startup.main:0000000000000076 .LBB4
C:\Users\Jesper\AppData\Local\Temp\cc7Kl7lD.s:104    .text.startup.main:000000000000007e .LBE4
C:\Users\Jesper\AppData\Local\Temp\cc7Kl7lD.s:113    .text.startup.main:000000000000008c .LBB5
C:\Users\Jesper\AppData\Local\Temp\cc7Kl7lD.s:117    .text.startup.main:0000000000000090 .LBE5
C:\Users\Jesper\AppData\Local\Temp\cc7Kl7lD.s:155    .text.startup.main:00000000000000dc .LBB6
C:\Users\Jesper\AppData\Local\Temp\cc7Kl7lD.s:157    .text.startup.main:00000000000000dc .LBE6
C:\Users\Jesper\AppData\Local\Temp\cc7Kl7lD.s:160    .text.startup.main:00000000000000de .LBB7
C:\Users\Jesper\AppData\Local\Temp\cc7Kl7lD.s:190    .text.startup.main:0000000000000114 .LBE7

UNDEFINED SYMBOLS
ADC3powerUpInit
Lcd_SetType
Lcd_Init
LCD_Clear
GAS LISTING C:\Users\Jesper\AppData\Local\Temp\cc7Kl7lD.s 			page 15


adc_flag_get
delay_1ms
LCD_Wait_On_Queue
fft
draw_graph
cordic_hypotenuse
LCD_DrawLine
inverse_fft
LCD_DrawPoint
adc_regular_data_read
adc_flag_clear
delay_1us
adc_software_trigger_enable
